Certificate:
    Data:
        Version: 3 (0x2)
        Serial Number: 1 (0x1)
        Signature Algorithm: sha256WithRSAEncryption
        Issuer: C=FR, ST=Test Province, L=Test Town, O=Test Company, OU=Test Unit, CN=Test Name/emailAddress=test@test.com
        Validity
            Not Before: Apr 16 08:44:47 2021 GMT
            Not After : Jan 11 08:44:47 2024 GMT
        Subject: C=Unknown, ST=Unknown, L=Unknown, O=Unknown, OU=Unknown, CN=Unknown
        Subject Public Key Info:
            Public Key Algorithm: rsaEncryption
                RSA Public-Key: (2048 bit)
                Modulus:
                    00:b5:49:2c:3c:7a:89:8a:78:21:66:42:7b:f4:b7:
                    98:41:65:70:4f:9d:12:3d:f3:ec:3b:53:b4:66:5e:
                    1e:06:f8:fb:7f:bc:75:fe:46:1c:a1:13:d6:46:8e:
                    10:03:b1:5c:e0:1f:ee:0c:f7:e9:c2:6c:08:57:60:
                    b4:b1:18:20:8b:d7:05:22:e9:03:b8:5c:e4:86:0e:
                    7e:cc:01:69:7c:a2:4e:ad:40:46:d0:12:06:a4:42:
                    98:1c:50:28:c0:62:42:3d:52:1d:ca:8e:cf:9d:cc:
                    3e:49:83:89:58:7f:bc:37:af:36:ad:5e:a3:0a:da:
                    ac:fc:9a:b7:88:85:52:71:74:8c:db:44:63:a6:44:
                    20:9e:1b:16:19:67:dc:1b:fd:ff:6c:af:3b:10:42:
                    93:df:f7:de:7a:2d:e0:8c:c2:96:1a:a0:03:af:e4:
                    d0:51:8c:43:57:3e:8b:bf:a0:a3:7a:b3:86:6f:43:
                    8e:f7:74:e7:5f:0e:ce:47:fa:ff:84:a9:c1:0d:7e:
                    55:be:79:fd:0c:d9:8d:fe:b2:8a:b8:61:ce:48:9a:
                    fa:ee:45:2b:25:07:cd:b5:83:43:e5:39:29:0e:14:
                    b6:d0:f3:4d:85:ce:3b:2d:4d:58:de:8c:9e:33:80:
                    0a:f0:d3:d3:e0:72:8b:85:76:ab:f5:46:cb:22:af:
                    a2:c3
                Exponent: 65537 (0x10001)
        X509v3 extensions:
            X509v3 Subject Key Identifier: 
                01:EA:41:A6:11:F1:BC:9B:C8:13:3A:F7:83:1B:31:B4:CA:BC:B5:68
            X509v3 Authority Key Identifier: 
                keyid:57:C9:C0:BB:56:40:AE:4D:C7:DE:BF:C0:38:85:9B:E5:4D:2F:A9:9C

            X509v3 Basic Constraints: 
                CA:FALSE
            X509v3 Key Usage: 
                Digital Signature, Key Encipherment
    Signature Algorithm: sha256WithRSAEncryption
         01:4b:09:52:40:1e:24:60:fa:8b:57:53:75:01:52:3b:e1:58:
         4c:7f:b5:d9:6c:53:6d:60:e6:ce:f2:a7:73:d7:21:b7:31:9d:
         b6:e1:d8:26:f1:14:7b:cc:86:33:84:cf:90:82:dd:b5:ad:18:
         a5:22:c7:32:4c:d1:1b:4a:26:e2:d3:d6:fd:00:b6:fb:cc:02:
         05:37:7f:ac:54:8d:c2:1e:28:c7:0d:7e:ff:06:52:ef:92:3c:
         25:45:b2:df:20:a0:f7:7a:9b:02:ab:00:89:8e:c0:88:af:92:
         f6:e1:16:7e:75:54:02:5f:f7:17:b9:da:64:0f:51:cb:71:81:
         a6:65:96:65:9c:c5:05:66:f2:a6:26:da:5a:1d:cc:20:b6:40:
         04:34:60:34:13:28:a7:e5:a2:ef:58:2e:4b:20:8f:c8:5c:98:
         7b:91:99:48:eb:11:f3:28:e1:b3:41:32:88:ef:d9:80:d6:2f:
         a3:d1:d9:c1:81:d1:ba:54:3a:b1:e6:90:1c:8f:1e:af:28:25:
         85:b9:6e:7e:9a:0d:e1:b3:a4:ce:ca:71:e5:ba:e6:93:af:20:
         b2:94:bb:b1:8b:cb:0d:11:03:bd:08:84:65:4d:77:b8:c7:3d:
         05:fa:dc:15:e7:37:00:77:1e:54:fc:87:04:c6:20:f6:38:a0:
         1e:83:01:72:7e:10:16:77:33:e8:df:ef:1f:91:d4:1b:2f:ac:
         0a:9e:a5:80:22:82:20:88:d3:ed:16:f2:20:44:dc:c0:fe:86:
         eb:4e:7a:ed:5b:b2:d2:fd:78:fb:f4:c1:b4:d0:18:7c:0d:86:
         bc:01:1c:87:d9:c1:89:b2:75:06:6c:9b:37:79:93:10:de:fe:
         fa:39:12:b9:87:21:97:52:82:d6:f2:ff:2d:8f:bf:89:60:92:
         fc:db:11:b7:f4:d7:6e:cf:4d:49:2d:22:44:aa:e0:7a:bd:35:
         1e:9d:d3:7e:56:02:8a:9b:15:67:3d:f7:b0:9b:5c:3f:cf:31:
         ce:26:43:3a:9b:4a:ad:b5:5e:e1:aa:ef:fa:1b:55:91:e8:ce:
         13:76:8e:3b:b1:26:7f:e7:0f:f6:d5:b8:d8:5a:9c:c5:4e:a1:
         8a:16:53:e3:b3:e7:a9:61:44:8d:6e:a7:9d:0c:57:35:67:97:
         e7:30:bb:fc:96:73:c7:b5:ac:3e:b1:55:12:60:ec:af:c6:36:
         d6:2c:8c:42:7d:e7:70:38:81:d4:d4:bc:47:10:db:d4:8e:1b:
         1d:45:dc:94:dd:9b:67:15:85:3a:05:3b:8d:f8:52:2f:5a:5d:
         81:97:f6:1d:90:ab:4b:cc:8d:49:e9:51:a4:05:d5:8d:70:fb:
         db:07:87:45:f3:79:0b:36
-----BEGIN CERTIFICATE-----
MIIE2DCCAsCgAwIBAgIBATANBgkqhkiG9w0BAQsFADCBljELMAkGA1UEBhMCRlIx
FjAUBgNVBAgMDVRlc3QgUHJvdmluY2UxEjAQBgNVBAcMCVRlc3QgVG93bjEVMBMG
A1UECgwMVGVzdCBDb21wYW55MRIwEAYDVQQLDAlUZXN0IFVuaXQxEjAQBgNVBAMM
CVRlc3QgTmFtZTEcMBoGCSqGSIb3DQEJARYNdGVzdEB0ZXN0LmNvbTAeFw0yMTA0
MTYwODQ0NDdaFw0yNDAxMTEwODQ0NDdaMGwxEDAOBgNVBAYTB1Vua25vd24xEDAO
BgNVBAgTB1Vua25vd24xEDAOBgNVBAcTB1Vua25vd24xEDAOBgNVBAoTB1Vua25v
d24xEDAOBgNVBAsTB1Vua25vd24xEDAOBgNVBAMTB1Vua25vd24wggEiMA0GCSqG
SIb3DQEBAQUAA4IBDwAwggEKAoIBAQC1SSw8eomKeCFmQnv0t5hBZXBPnRI98+w7
U7RmXh4G+Pt/vHX+RhyhE9ZGjhADsVzgH+4M9+nCbAhXYLSxGCCL1wUi6QO4XOSG
Dn7MAWl8ok6tQEbQEgakQpgcUCjAYkI9Uh3Kjs+dzD5Jg4lYf7w3rzatXqMK2qz8
mreIhVJxdIzbRGOmRCCeGxYZZ9wb/f9srzsQQpPf9956LeCMwpYaoAOv5NBRjENX
Pou/oKN6s4ZvQ473dOdfDs5H+v+EqcENflW+ef0M2Y3+soq4Yc5ImvruRSslB821
g0PlOSkOFLbQ802FzjstTVjejJ4zgArw09PgcouFdqv1Rssir6LDAgMBAAGjWjBY
MB0GA1UdDgQWBBQB6kGmEfG8m8gTOveDGzG0yry1aDAfBgNVHSMEGDAWgBRXycC7
VkCuTcfev8A4hZvlTS+pnDAJBgNVHRMEAjAAMAsGA1UdDwQEAwIFoDANBgkqhkiG
9w0BAQsFAAOCAgEAAUsJUkAeJGD6i1dTdQFSO+FYTH+12WxTbWDmzvKnc9chtzGd
tuHYJvEUe8yGM4TPkILdta0YpSLHMkzRG0om4tPW/QC2+8wCBTd/rFSNwh4oxw1+
/wZS75I8JUWy3yCg93qbAqsAiY7AiK+S9uEWfnVUAl/3F7naZA9Ry3GBpmWWZZzF
BWbypibaWh3MILZABDRgNBMop+Wi71guSyCPyFyYe5GZSOsR8yjhs0EyiO/ZgNYv
o9HZwYHRulQ6seaQHI8eryglhblufpoN4bOkzspx5brmk68gspS7sYvLDREDvQiE
ZU13uMc9BfrcFec3AHceVPyHBMYg9jigHoMBcn4QFncz6N/vH5HUGy+sCp6lgCKC
IIjT7RbyIETcwP6G60567Vuy0v14+/TBtNAYfA2GvAEch9nBibJ1BmybN3mTEN7+
+jkSuYchl1KC1vL/LY+/iWCS/NsRt/TXbs9NSS0iRKrger01Hp3TflYCipsVZz33
sJtcP88xziZDOptKrbVe4arv+htVkejOE3aOO7Emf+cP9tW42FqcxU6hihZT47Pn
qWFEjW6nnQxXNWeX5zC7/JZzx7WsPrFVEmDsr8Y21iyMQn3ncDiB1NS8RxDb1I4b
HUXclN2bZxWFOgU7jfhSL1pdgZf2HZCrS8yNSelRpAXVjXD72weHRfN5CzY=
-----END CERTIFICATE-----
